target datalayout = "e-m:e-p270:32:32-p271:32:32-p272:64:64-i64:64-i128:128-f80:128-n8:16:32:64-S128"
target triple = "x86_64-pc-linux-gnu"

%struct.TupleTableSlotOps = type { i64, ptr, ptr, ptr, ptr, ptr, ptr, ptr, ptr, ptr, ptr, ptr, ptr }
%struct.RelationData = type { %struct.RelFileLocator, ptr, i32, i32, i8, i8, i8, i8, i8, i32, i32, i32, i32, ptr, ptr, i32, %struct.LockInfoData, ptr, ptr, ptr, ptr, ptr, i8, ptr, ptr, ptr, ptr, ptr, ptr, i32, ptr, i8, ptr, ptr, i32, i8, i32, ptr, i8, ptr, ptr, ptr, ptr, ptr, ptr, ptr, i32, ptr, ptr, ptr, ptr, ptr, ptr, ptr, ptr, ptr, ptr, ptr, ptr, ptr, ptr, ptr, ptr, ptr, ptr, ptr, i32, i8, ptr }
%struct.RelFileLocator = type { i32, i32, i32 }
%struct.LockInfoData = type { %struct.LockRelId }
%struct.LockRelId = type { i32, i32 }
%struct.ScanKeyData = type { i32, i16, i16, i32, i32, %struct.FmgrInfo, i64 }
%struct.FmgrInfo = type { ptr, i32, i16, i8, i8, i8, ptr, ptr, ptr }
%struct.FormData_pg_shdepend = type { i32, i32, i32, i32, i32, i32, i8 }
%struct.HeapTupleData = type { i32, %struct.ItemPointerData, i32, ptr }
%struct.ItemPointerData = type { %struct.BlockIdData, i16 }
%struct.BlockIdData = type { i16, i16 }
%struct.HeapTupleHeaderData = type { %union.anon, %struct.ItemPointerData, i16, i16, i8, [0 x i8] }
%union.anon = type { %struct.HeapTupleFields }
%struct.HeapTupleFields = type { i32, i32, %union.anon.0 }
%union.anon.0 = type { i32 }
%struct.TupleTableSlot = type { i32, i16, i16, ptr, ptr, ptr, ptr, ptr, %struct.ItemPointerData, i32 }
%struct.TupleDescData = type { i32, i32, i32, i32, ptr, [0 x %struct.CompactAttribute] }
%struct.CompactAttribute = type { i32, i16, i8, i8, i8, i8, i8, i8, i8 }

@TTSOpsHeapTuple = external constant %struct.TupleTableSlotOps, align 8

; Function Attrs: inlinehint nounwind uwtable
define internal ptr @GETSTRUCT(ptr noundef %0) #4 {
  %2 = alloca ptr, align 8
  store ptr %0, ptr %2, align 8
  %3 = load ptr, ptr %2, align 8
  %4 = getelementptr inbounds nuw %struct.HeapTupleData, ptr %3, i32 0, i32 3
  %5 = load ptr, ptr %4, align 8
  %6 = load ptr, ptr %2, align 8
  %7 = getelementptr inbounds nuw %struct.HeapTupleData, ptr %6, i32 0, i32 3
  %8 = load ptr, ptr %7, align 8
  %9 = getelementptr inbounds nuw %struct.HeapTupleHeaderData, ptr %8, i32 0, i32 4
  %10 = load i8, ptr %9, align 2
  %11 = zext i8 %10 to i32
  %12 = sext i32 %11 to i64
  %13 = getelementptr inbounds i8, ptr %5, i64 %12
  ret ptr %13
}

; Function Attrs: inlinehint nounwind uwtable
define internal ptr @ExecClearTuple(ptr noundef %0) #4 {
  %2 = alloca ptr, align 8
  store ptr %0, ptr %2, align 8
  %3 = load ptr, ptr %2, align 8
  %4 = getelementptr inbounds nuw %struct.TupleTableSlot, ptr %3, i32 0, i32 3
  %5 = load ptr, ptr %4, align 8
  %6 = getelementptr inbounds nuw %struct.TupleTableSlotOps, ptr %5, i32 0, i32 3
  %7 = load ptr, ptr %6, align 8
  %8 = load ptr, ptr %2, align 8
  call void %7(ptr noundef %8)
  %9 = load ptr, ptr %2, align 8
  ret ptr %9
}

; Function Attrs: inlinehint nounwind uwtable
define internal i64 @ObjectIdGetDatum(i32 noundef %0) #4 {
  %2 = alloca i32, align 4
  store i32 %0, ptr %2, align 4
  %3 = load i32, ptr %2, align 4
  %4 = zext i32 %3 to i64
  ret i64 %4
}

; Function Attrs: nounwind uwtable
define dso_local void @copyTemplateDependencies(i32 noundef %0, i32 noundef %1) #0 {
  %3 = alloca i32, align 4
  %4 = alloca i32, align 4
  %5 = alloca ptr, align 8
  %6 = alloca ptr, align 8
  %7 = alloca [1 x %struct.ScanKeyData], align 16
  %8 = alloca ptr, align 8
  %9 = alloca ptr, align 8
  %10 = alloca ptr, align 8
  %11 = alloca ptr, align 8
  %12 = alloca i32, align 4
  %13 = alloca i32, align 4
  %14 = alloca i32, align 4
  %15 = alloca ptr, align 8
  %16 = alloca i32, align 4
  store i32 %0, ptr %3, align 4
  store i32 %1, ptr %4, align 4
  call void @llvm.lifetime.start.p0(i64 8, ptr %5) #7
  call void @llvm.lifetime.start.p0(i64 8, ptr %6) #7
  call void @llvm.lifetime.start.p0(i64 72, ptr %7) #7
  call void @llvm.lifetime.start.p0(i64 8, ptr %8) #7
  call void @llvm.lifetime.start.p0(i64 8, ptr %9) #7
  call void @llvm.lifetime.start.p0(i64 8, ptr %10) #7
  call void @llvm.lifetime.start.p0(i64 8, ptr %11) #7
  call void @llvm.lifetime.start.p0(i64 4, ptr %12) #7
  call void @llvm.lifetime.start.p0(i64 4, ptr %13) #7
  call void @llvm.lifetime.start.p0(i64 4, ptr %14) #7
  %17 = call ptr @table_open(i32 noundef 1214, i32 noundef 3)
  store ptr %17, ptr %5, align 8
  %18 = load ptr, ptr %5, align 8
  %19 = getelementptr inbounds nuw %struct.RelationData, ptr %18, i32 0, i32 14
  %20 = load ptr, ptr %19, align 8
  store ptr %20, ptr %6, align 8
  store i32 2340, ptr %12, align 4
  %21 = load i32, ptr %12, align 4
  %22 = sext i32 %21 to i64
  %23 = mul i64 8, %22
  %24 = call ptr @palloc(i64 noundef %23)
  store ptr %24, ptr %11, align 8
  %25 = load ptr, ptr %5, align 8
  %26 = call ptr @CatalogOpenIndexes(ptr noundef %25)
  store ptr %26, ptr %10, align 8
  %27 = getelementptr inbounds [1 x %struct.ScanKeyData], ptr %7, i64 0, i64 0
  %28 = load i32, ptr %3, align 4
  %29 = call i64 @ObjectIdGetDatum(i32 noundef %28)
  call void @ScanKeyInit(ptr noundef %27, i16 noundef signext 1, i16 noundef zeroext 3, i32 noundef 184, i64 noundef %29)
  %30 = load ptr, ptr %5, align 8
  %31 = getelementptr inbounds [1 x %struct.ScanKeyData], ptr %7, i64 0, i64 0
  %32 = call ptr @systable_beginscan(ptr noundef %30, i32 noundef 1232, i1 noundef zeroext true, ptr noundef null, i32 noundef 1, ptr noundef %31)
  store ptr %32, ptr %8, align 8
  store i32 0, ptr %14, align 4
  store i32 0, ptr %13, align 4
  br label %33

33:                                               ; preds = %175, %2
  %34 = load ptr, ptr %8, align 8
  %35 = call ptr @systable_getnext(ptr noundef %34)
  store ptr %35, ptr %9, align 8
  %36 = icmp ne ptr %35, null
  br i1 %36, label %37, label %176

37:                                               ; preds = %33
  call void @llvm.lifetime.start.p0(i64 8, ptr %15) #7
  %38 = load i32, ptr %13, align 4
  %39 = load i32, ptr %12, align 4
  %40 = icmp slt i32 %38, %39
  br i1 %40, label %41, label %50

41:                                               ; preds = %37
  %42 = load ptr, ptr %6, align 8
  %43 = call ptr @MakeSingleTupleTableSlot(ptr noundef %42, ptr noundef @TTSOpsHeapTuple)
  %44 = load ptr, ptr %11, align 8
  %45 = load i32, ptr %14, align 4
  %46 = sext i32 %45 to i64
  %47 = getelementptr inbounds ptr, ptr %44, i64 %46
  store ptr %43, ptr %47, align 8
  %48 = load i32, ptr %13, align 4
  %49 = add i32 %48, 1
  store i32 %49, ptr %13, align 4
  br label %50

50:                                               ; preds = %41, %37
  %51 = load ptr, ptr %11, align 8
  %52 = load i32, ptr %14, align 4
  %53 = sext i32 %52 to i64
  %54 = getelementptr inbounds ptr, ptr %51, i64 %53
  %55 = load ptr, ptr %54, align 8
  %56 = call ptr @ExecClearTuple(ptr noundef %55)
  %57 = load ptr, ptr %11, align 8
  %58 = load i32, ptr %14, align 4
  %59 = sext i32 %58 to i64
  %60 = getelementptr inbounds ptr, ptr %57, i64 %59
  %61 = load ptr, ptr %60, align 8
  %62 = getelementptr inbounds nuw %struct.TupleTableSlot, ptr %61, i32 0, i32 6
  %63 = load ptr, ptr %62, align 8
  %64 = load ptr, ptr %11, align 8
  %65 = load i32, ptr %14, align 4
  %66 = sext i32 %65 to i64
  %67 = getelementptr inbounds ptr, ptr %64, i64 %66
  %68 = load ptr, ptr %67, align 8
  %69 = getelementptr inbounds nuw %struct.TupleTableSlot, ptr %68, i32 0, i32 4
  %70 = load ptr, ptr %69, align 8
  %71 = getelementptr inbounds nuw %struct.TupleDescData, ptr %70, i32 0, i32 0
  %72 = load i32, ptr %71, align 8
  %73 = sext i32 %72 to i64
  %74 = mul i64 %73, 1
  call void @llvm.memset.p0.i64(ptr align 1 %63, i8 0, i64 %74, i1 false)
  %75 = load ptr, ptr %9, align 8
  %76 = call ptr @GETSTRUCT(ptr noundef %75)
  store ptr %76, ptr %15, align 8
  %77 = load i32, ptr %4, align 4
  %78 = call i64 @ObjectIdGetDatum(i32 noundef %77)
  %79 = load ptr, ptr %11, align 8
  %80 = load i32, ptr %14, align 4
  %81 = sext i32 %80 to i64
  %82 = getelementptr inbounds ptr, ptr %79, i64 %81
  %83 = load ptr, ptr %82, align 8
  %84 = getelementptr inbounds nuw %struct.TupleTableSlot, ptr %83, i32 0, i32 5
  %85 = load ptr, ptr %84, align 8
  %86 = getelementptr inbounds i64, ptr %85, i64 0
  store i64 %78, ptr %86, align 8
  %87 = load ptr, ptr %15, align 8
  %88 = getelementptr inbounds nuw %struct.FormData_pg_shdepend, ptr %87, i32 0, i32 1
  %89 = load i32, ptr %88, align 4
  %90 = zext i32 %89 to i64
  %91 = load ptr, ptr %11, align 8
  %92 = load i32, ptr %14, align 4
  %93 = sext i32 %92 to i64
  %94 = getelementptr inbounds ptr, ptr %91, i64 %93
  %95 = load ptr, ptr %94, align 8
  %96 = getelementptr inbounds nuw %struct.TupleTableSlot, ptr %95, i32 0, i32 5
  %97 = load ptr, ptr %96, align 8
  %98 = getelementptr inbounds i64, ptr %97, i64 1
  store i64 %90, ptr %98, align 8
  %99 = load ptr, ptr %15, align 8
  %100 = getelementptr inbounds nuw %struct.FormData_pg_shdepend, ptr %99, i32 0, i32 2
  %101 = load i32, ptr %100, align 4
  %102 = zext i32 %101 to i64
  %103 = load ptr, ptr %11, align 8
  %104 = load i32, ptr %14, align 4
  %105 = sext i32 %104 to i64
  %106 = getelementptr inbounds ptr, ptr %103, i64 %105
  %107 = load ptr, ptr %106, align 8
  %108 = getelementptr inbounds nuw %struct.TupleTableSlot, ptr %107, i32 0, i32 5
  %109 = load ptr, ptr %108, align 8
  %110 = getelementptr inbounds i64, ptr %109, i64 2
  store i64 %102, ptr %110, align 8
  %111 = load ptr, ptr %15, align 8
  %112 = getelementptr inbounds nuw %struct.FormData_pg_shdepend, ptr %111, i32 0, i32 3
  %113 = load i32, ptr %112, align 4
  %114 = sext i32 %113 to i64
  %115 = load ptr, ptr %11, align 8
  %116 = load i32, ptr %14, align 4
  %117 = sext i32 %116 to i64
  %118 = getelementptr inbounds ptr, ptr %115, i64 %117
  %119 = load ptr, ptr %118, align 8
  %120 = getelementptr inbounds nuw %struct.TupleTableSlot, ptr %119, i32 0, i32 5
  %121 = load ptr, ptr %120, align 8
  %122 = getelementptr inbounds i64, ptr %121, i64 3
  store i64 %114, ptr %122, align 8
  %123 = load ptr, ptr %15, align 8
  %124 = getelementptr inbounds nuw %struct.FormData_pg_shdepend, ptr %123, i32 0, i32 4
  %125 = load i32, ptr %124, align 4
  %126 = zext i32 %125 to i64
  %127 = load ptr, ptr %11, align 8
  %128 = load i32, ptr %14, align 4
  %129 = sext i32 %128 to i64
  %130 = getelementptr inbounds ptr, ptr %127, i64 %129
  %131 = load ptr, ptr %130, align 8
  %132 = getelementptr inbounds nuw %struct.TupleTableSlot, ptr %131, i32 0, i32 5
  %133 = load ptr, ptr %132, align 8
  %134 = getelementptr inbounds i64, ptr %133, i64 4
  store i64 %126, ptr %134, align 8
  %135 = load ptr, ptr %15, align 8
  %136 = getelementptr inbounds nuw %struct.FormData_pg_shdepend, ptr %135, i32 0, i32 5
  %137 = load i32, ptr %136, align 4
  %138 = zext i32 %137 to i64
  %139 = load ptr, ptr %11, align 8
  %140 = load i32, ptr %14, align 4
  %141 = sext i32 %140 to i64
  %142 = getelementptr inbounds ptr, ptr %139, i64 %141
  %143 = load ptr, ptr %142, align 8
  %144 = getelementptr inbounds nuw %struct.TupleTableSlot, ptr %143, i32 0, i32 5
  %145 = load ptr, ptr %144, align 8
  %146 = getelementptr inbounds i64, ptr %145, i64 5
  store i64 %138, ptr %146, align 8
  %147 = load ptr, ptr %15, align 8
  %148 = getelementptr inbounds nuw %struct.FormData_pg_shdepend, ptr %147, i32 0, i32 6
  %149 = load i8, ptr %148, align 4
  %150 = sext i8 %149 to i64
  %151 = load ptr, ptr %11, align 8
  %152 = load i32, ptr %14, align 4
  %153 = sext i32 %152 to i64
  %154 = getelementptr inbounds ptr, ptr %151, i64 %153
  %155 = load ptr, ptr %154, align 8
  %156 = getelementptr inbounds nuw %struct.TupleTableSlot, ptr %155, i32 0, i32 5
  %157 = load ptr, ptr %156, align 8
  %158 = getelementptr inbounds i64, ptr %157, i64 6
  store i64 %150, ptr %158, align 8
  %159 = load ptr, ptr %11, align 8
  %160 = load i32, ptr %14, align 4
  %161 = sext i32 %160 to i64
  %162 = getelementptr inbounds ptr, ptr %159, i64 %161
  %163 = load ptr, ptr %162, align 8
  %164 = call ptr @ExecStoreVirtualTuple(ptr noundef %163)
  %165 = load i32, ptr %14, align 4
  %166 = add i32 %165, 1
  store i32 %166, ptr %14, align 4
  %167 = load i32, ptr %14, align 4
  %168 = load i32, ptr %12, align 4
  %169 = icmp eq i32 %167, %168
  br i1 %169, label %170, label %175

170:                                              ; preds = %50
  %171 = load ptr, ptr %5, align 8
  %172 = load ptr, ptr %11, align 8
  %173 = load i32, ptr %14, align 4
  %174 = load ptr, ptr %10, align 8
  call void @CatalogTuplesMultiInsertWithInfo(ptr noundef %171, ptr noundef %172, i32 noundef %173, ptr noundef %174)
  store i32 0, ptr %14, align 4
  br label %175

175:                                              ; preds = %170, %50
  call void @llvm.lifetime.end.p0(i64 8, ptr %15) #7
  br label %33, !llvm.loop !15

176:                                              ; preds = %33
  %177 = load i32, ptr %14, align 4
  %178 = icmp sgt i32 %177, 0
  br i1 %178, label %179, label %184

179:                                              ; preds = %176
  %180 = load ptr, ptr %5, align 8
  %181 = load ptr, ptr %11, align 8
  %182 = load i32, ptr %14, align 4
  %183 = load ptr, ptr %10, align 8
  call void @CatalogTuplesMultiInsertWithInfo(ptr noundef %180, ptr noundef %181, i32 noundef %182, ptr noundef %183)
  br label %184

184:                                              ; preds = %179, %176
  %185 = load ptr, ptr %8, align 8
  call void @systable_endscan(ptr noundef %185)
  %186 = load ptr, ptr %10, align 8
  call void @CatalogCloseIndexes(ptr noundef %186)
  %187 = load ptr, ptr %5, align 8
  call void @table_close(ptr noundef %187, i32 noundef 3)
  call void @llvm.lifetime.start.p0(i64 4, ptr %16) #7
  store i32 0, ptr %16, align 4
  br label %188

188:                                              ; preds = %199, %184
  %189 = load i32, ptr %16, align 4
  %190 = load i32, ptr %13, align 4
  %191 = icmp slt i32 %189, %190
  br i1 %191, label %193, label %192

192:                                              ; preds = %188
  call void @llvm.lifetime.end.p0(i64 4, ptr %16) #7
  br label %202

193:                                              ; preds = %188
  %194 = load ptr, ptr %11, align 8
  %195 = load i32, ptr %16, align 4
  %196 = sext i32 %195 to i64
  %197 = getelementptr inbounds ptr, ptr %194, i64 %196
  %198 = load ptr, ptr %197, align 8
  call void @ExecDropSingleTupleTableSlot(ptr noundef %198)
  br label %199

199:                                              ; preds = %193
  %200 = load i32, ptr %16, align 4
  %201 = add i32 %200, 1
  store i32 %201, ptr %16, align 4
  br label %188, !llvm.loop !16

202:                                              ; preds = %192
  %203 = load ptr, ptr %11, align 8
  call void @pfree(ptr noundef %203)
  call void @llvm.lifetime.end.p0(i64 4, ptr %14) #7
  call void @llvm.lifetime.end.p0(i64 4, ptr %13) #7
  call void @llvm.lifetime.end.p0(i64 4, ptr %12) #7
  call void @llvm.lifetime.end.p0(i64 8, ptr %11) #7
  call void @llvm.lifetime.end.p0(i64 8, ptr %10) #7
  call void @llvm.lifetime.end.p0(i64 8, ptr %9) #7
  call void @llvm.lifetime.end.p0(i64 8, ptr %8) #7
  call void @llvm.lifetime.end.p0(i64 72, ptr %7) #7
  call void @llvm.lifetime.end.p0(i64 8, ptr %6) #7
  call void @llvm.lifetime.end.p0(i64 8, ptr %5) #7
  ret void
}