; Function Attrs: nounwind uwtable
define dso_local void @copyTemplateDependencies(i32 noundef %0, i32 noundef %1) local_unnamed_addr #0 {
  %3 = alloca [1 x %struct.ScanKeyData], align 16
  call void @llvm.lifetime.start.p0(i64 72, ptr nonnull %3) #8
  %4 = tail call ptr @table_open(i32 noundef 1214, i32 noundef 3) #8
  %5 = getelementptr inbounds nuw i8, ptr %4, i64 64
  %6 = load ptr, ptr %5, align 8
  %7 = tail call ptr @palloc(i64 noundef 18720) #8
  %8 = tail call ptr @CatalogOpenIndexes(ptr noundef %4) #8
  %9 = zext i32 %0 to i64
  call void @ScanKeyInit(ptr noundef nonnull %3, i16 noundef signext 1, i16 noundef zeroext 3, i32 noundef 184, i64 noundef %9) #8
  %10 = call ptr @systable_beginscan(ptr noundef %4, i32 noundef 1232, i1 noundef zeroext true, ptr noundef null, i32 noundef 1, ptr noundef nonnull %3) #8
  %11 = call ptr @systable_getnext(ptr noundef %10) #8
  %.not68 = icmp eq ptr %11, null
  br i1 %.not68, label %._crit_edge.thread, label %.lr.ph

.lr.ph:                                           ; preds = %2
  %12 = zext i32 %1 to i64
  br label %13

13:                                               ; preds = %.lr.ph, %90
  %14 = phi ptr [ %11, %.lr.ph ], [ %91, %90 ]
  %.06270 = phi i32 [ 0, %.lr.ph ], [ %.1, %90 ]
  %.06369 = phi i32 [ 0, %.lr.ph ], [ %.164, %90 ]
  %15 = icmp slt i32 %.06270, 2340
  br i1 %15, label %16, label %._crit_edge77

._crit_edge77:                                    ; preds = %13
  %.phi.trans.insert = sext i32 %.06369 to i64
  %.phi.trans.insert78 = getelementptr inbounds ptr, ptr %7, i64 %.phi.trans.insert
  %.pre = load ptr, ptr %.phi.trans.insert78, align 8
  br label %21

16:                                               ; preds = %13
  %17 = call ptr @MakeSingleTupleTableSlot(ptr noundef %6, ptr noundef nonnull @TTSOpsHeapTuple) #8
  %18 = sext i32 %.06369 to i64
  %19 = getelementptr inbounds ptr, ptr %7, i64 %18
  store ptr %17, ptr %19, align 8
  %20 = add nsw i32 %.06270, 1
  br label %21

21:                                               ; preds = %._crit_edge77, %16
  %.pre-phi = phi i64 [ %.phi.trans.insert, %._crit_edge77 ], [ %18, %16 ]
  %22 = phi ptr [ %.pre, %._crit_edge77 ], [ %17, %16 ]
  %.1 = phi i32 [ %.06270, %._crit_edge77 ], [ %20, %16 ]
  %23 = getelementptr inbounds ptr, ptr %7, i64 %.pre-phi
  %24 = getelementptr inbounds nuw i8, ptr %22, i64 8
  %25 = load ptr, ptr %24, align 8
  %26 = getelementptr inbounds nuw i8, ptr %25, i64 24
  %27 = load ptr, ptr %26, align 8
  call void %27(ptr noundef %22) #8
  %28 = load ptr, ptr %23, align 8
  %29 = getelementptr inbounds nuw i8, ptr %28, i64 32
  %30 = load ptr, ptr %29, align 8
  %31 = getelementptr inbounds nuw i8, ptr %28, i64 16
  %32 = load ptr, ptr %31, align 8
  %33 = load i32, ptr %32, align 8
  %34 = sext i32 %33 to i64
  call void @llvm.memset.p0.i64(ptr align 1 %30, i8 0, i64 %34, i1 false)
  %35 = getelementptr i8, ptr %14, i64 16
  %.val = load ptr, ptr %35, align 8
  %36 = getelementptr inbounds nuw i8, ptr %.val, i64 22
  %37 = load i8, ptr %36, align 2
  %38 = zext i8 %37 to i64
  %39 = getelementptr inbounds nuw i8, ptr %.val, i64 %38
  %40 = load ptr, ptr %23, align 8
  %41 = getelementptr inbounds nuw i8, ptr %40, i64 24
  %42 = load ptr, ptr %41, align 8
  store i64 %12, ptr %42, align 8
  %43 = getelementptr inbounds nuw i8, ptr %39, i64 4
  %44 = load i32, ptr %43, align 4
  %45 = zext i32 %44 to i64
  %46 = load ptr, ptr %23, align 8
  %47 = getelementptr inbounds nuw i8, ptr %46, i64 24
  %48 = load ptr, ptr %47, align 8
  %49 = getelementptr inbounds nuw i8, ptr %48, i64 8
  store i64 %45, ptr %49, align 8
  %50 = getelementptr inbounds nuw i8, ptr %39, i64 8
  %51 = load i32, ptr %50, align 4
  %52 = zext i32 %51 to i64
  %53 = load ptr, ptr %23, align 8
  %54 = getelementptr inbounds nuw i8, ptr %53, i64 24
  %55 = load ptr, ptr %54, align 8
  %56 = getelementptr inbounds nuw i8, ptr %55, i64 16
  store i64 %52, ptr %56, align 8
  %57 = getelementptr inbounds nuw i8, ptr %39, i64 12
  %58 = load i32, ptr %57, align 4
  %59 = sext i32 %58 to i64
  %60 = load ptr, ptr %23, align 8
  %61 = getelementptr inbounds nuw i8, ptr %60, i64 24
  %62 = load ptr, ptr %61, align 8
  %63 = getelementptr inbounds nuw i8, ptr %62, i64 24
  store i64 %59, ptr %63, align 8
  %64 = getelementptr inbounds nuw i8, ptr %39, i64 16
  %65 = load i32, ptr %64, align 4
  %66 = zext i32 %65 to i64
  %67 = load ptr, ptr %23, align 8
  %68 = getelementptr inbounds nuw i8, ptr %67, i64 24
  %69 = load ptr, ptr %68, align 8
  %70 = getelementptr inbounds nuw i8, ptr %69, i64 32
  store i64 %66, ptr %70, align 8
  %71 = getelementptr inbounds nuw i8, ptr %39, i64 20
  %72 = load i32, ptr %71, align 4
  %73 = zext i32 %72 to i64
  %74 = load ptr, ptr %23, align 8
  %75 = getelementptr inbounds nuw i8, ptr %74, i64 24
  %76 = load ptr, ptr %75, align 8
  %77 = getelementptr inbounds nuw i8, ptr %76, i64 40
  store i64 %73, ptr %77, align 8
  %78 = getelementptr inbounds nuw i8, ptr %39, i64 24
  %79 = load i8, ptr %78, align 4
  %80 = sext i8 %79 to i64
  %81 = load ptr, ptr %23, align 8
  %82 = getelementptr inbounds nuw i8, ptr %81, i64 24
  %83 = load ptr, ptr %82, align 8
  %84 = getelementptr inbounds nuw i8, ptr %83, i64 48
  store i64 %80, ptr %84, align 8
  %85 = load ptr, ptr %23, align 8
  %86 = call ptr @ExecStoreVirtualTuple(ptr noundef %85) #8
  %87 = add i32 %.06369, 1
  %88 = icmp eq i32 %87, 2340
  br i1 %88, label %89, label %90

89:                                               ; preds = %21
  call void @CatalogTuplesMultiInsertWithInfo(ptr noundef %4, ptr noundef nonnull %7, i32 noundef 2340, ptr noundef %8) #8
  br label %90

90:                                               ; preds = %89, %21
  %.164 = phi i32 [ 0, %89 ], [ %87, %21 ]
  %91 = call ptr @systable_getnext(ptr noundef %10) #8
  %.not = icmp eq ptr %91, null
  br i1 %.not, label %._crit_edge, label %13, !llvm.loop !14

._crit_edge:                                      ; preds = %90
  %92 = icmp sgt i32 %.164, 0
  br i1 %92, label %93, label %._crit_edge.thread

93:                                               ; preds = %._crit_edge
  call void @CatalogTuplesMultiInsertWithInfo(ptr noundef %4, ptr noundef nonnull %7, i32 noundef %.164, ptr noundef %8) #8
  br label %._crit_edge.thread

._crit_edge.thread:                               ; preds = %2, %93, %._crit_edge
  %.062.lcssa81 = phi i32 [ %.1, %93 ], [ %.1, %._crit_edge ], [ 0, %2 ]
  call void @systable_endscan(ptr noundef %10) #8
  call void @CatalogCloseIndexes(ptr noundef %8) #8
  call void @table_close(ptr noundef %4, i32 noundef 3) #8
  %94 = icmp sgt i32 %.062.lcssa81, 0
  br i1 %94, label %.lr.ph74.preheader, label %._crit_edge75

.lr.ph74.preheader:                               ; preds = %._crit_edge.thread
  %wide.trip.count = zext nneg i32 %.062.lcssa81 to i64
  br label %.lr.ph74

._crit_edge75:                                    ; preds = %.lr.ph74, %._crit_edge.thread
  call void @pfree(ptr noundef %7) #8
  call void @llvm.lifetime.end.p0(i64 72, ptr nonnull %3) #8
  ret void

.lr.ph74:                                         ; preds = %.lr.ph74.preheader, %.lr.ph74
  %indvars.iv = phi i64 [ 0, %.lr.ph74.preheader ], [ %indvars.iv.next, %.lr.ph74 ]
  %95 = getelementptr inbounds nuw ptr, ptr %7, i64 %indvars.iv
  %96 = load ptr, ptr %95, align 8
  call void @ExecDropSingleTupleTableSlot(ptr noundef %96) #8
  %indvars.iv.next = add nuw nsw i64 %indvars.iv, 1
  %exitcond.not = icmp eq i64 %indvars.iv.next, %wide.trip.count
  br i1 %exitcond.not, label %._crit_edge75, label %.lr.ph74, !llvm.loop !15
}